target datalayout = "e-m:e-p270:32:32-p271:32:32-p272:64:64-i64:64-i128:128-f80:128-n8:16:32:64-S128"
target triple = "x86_64-pc-linux-gnu"

%struct.dt_lib_module_t = type { %struct.dt_action_t, ptr, ptr, ptr, ptr, ptr, ptr, ptr, ptr, ptr, ptr, ptr, ptr, ptr, ptr, ptr, ptr, ptr, ptr, ptr, ptr, ptr, ptr, ptr, ptr, ptr, ptr, ptr, ptr, ptr, ptr, [128 x i8], ptr, ptr, i32, ptr, ptr, ptr, i32 }
%struct.dt_action_t = type { i32, ptr, ptr, ptr, ptr, ptr }

@.str.49 = private unnamed_addr constant [10 x i8] c"_position\00", align 1

; Function Attrs: nounwind uwtable
define internal i32 @_lib_position(ptr noundef %0) #0 {
  %2 = alloca ptr, align 8
  %3 = alloca i32, align 4
  %4 = alloca ptr, align 8
  store ptr %0, ptr %2, align 8, !tbaa !6
  call void @llvm.lifetime.start.p0(i64 4, ptr %3) #12
  %5 = load ptr, ptr %2, align 8, !tbaa !6
  %6 = getelementptr inbounds nuw %struct.dt_lib_module_t, ptr %5, i32 0, i32 21
  %7 = load ptr, ptr %6, align 8, !tbaa !94
  %8 = icmp ne ptr %7, null
  br i1 %8, label %9, label %16

9:                                                ; preds = %1
  %10 = load ptr, ptr %2, align 8, !tbaa !6
  %11 = getelementptr inbounds nuw %struct.dt_lib_module_t, ptr %10, i32 0, i32 21
  %12 = load ptr, ptr %11, align 8, !tbaa !94
  %13 = load ptr, ptr %2, align 8, !tbaa !6
  %14 = call i32 %12(ptr noundef %13)
  %15 = add nsw i32 %14, 1
  br label %17

16:                                               ; preds = %1
  br label %17

17:                                               ; preds = %16, %9
  %18 = phi i32 [ %15, %9 ], [ 0, %16 ]
  store i32 %18, ptr %3, align 4, !tbaa !62
  call void @llvm.lifetime.start.p0(i64 8, ptr %4) #12
  %19 = load ptr, ptr %2, align 8, !tbaa !6
  %20 = call ptr @_get_lib_view_path(ptr noundef %19, ptr noundef null, ptr noundef @.str.49)
  store ptr %20, ptr %4, align 8, !tbaa !63
  %21 = load ptr, ptr %4, align 8, !tbaa !63
  %22 = icmp ne ptr %21, null
  br i1 %22, label %23, label %30

23:                                               ; preds = %17
  %24 = load ptr, ptr %4, align 8, !tbaa !63
  %25 = call i32 @dt_conf_key_exists(ptr noundef %24)
  %26 = icmp ne i32 %25, 0
  br i1 %26, label %27, label %30

27:                                               ; preds = %23
  %28 = load ptr, ptr %4, align 8, !tbaa !63
  %29 = call i32 @dt_conf_get_int(ptr noundef %28)
  store i32 %29, ptr %3, align 4, !tbaa !62
  br label %30

30:                                               ; preds = %27, %23, %17
  %31 = load ptr, ptr %4, align 8, !tbaa !63
  call void @g_free(ptr noundef %31)
  %32 = load i32, ptr %3, align 4, !tbaa !62
  call void @llvm.lifetime.end.p0(i64 8, ptr %4) #12
  call void @llvm.lifetime.end.p0(i64 4, ptr %3) #12
  ret i32 %32
}

; Function Attrs: nounwind uwtable
define i32 @dt_lib_get_container(ptr noundef %0) #0 {
  %2 = alloca ptr, align 8
  %3 = alloca i32, align 4
  store ptr %0, ptr %2, align 8, !tbaa !6
  call void @llvm.lifetime.start.p0(i64 4, ptr %3) #12
  %4 = load ptr, ptr %2, align 8, !tbaa !6
  %5 = getelementptr inbounds nuw %struct.dt_lib_module_t, ptr %4, i32 0, i32 4
  %6 = load ptr, ptr %5, align 8, !tbaa !95
  %7 = load ptr, ptr %2, align 8, !tbaa !6
  %8 = call i32 %6(ptr noundef %7)
  store i32 %8, ptr %3, align 4, !tbaa !62
  %9 = load ptr, ptr %2, align 8, !tbaa !6
  %10 = call i32 @_lib_position(ptr noundef %9)
  %11 = icmp slt i32 %10, 0
  br i1 %11, label %12, label %16

12:                                               ; preds = %1
  %13 = load i32, ptr %3, align 4, !tbaa !62
  %14 = icmp eq i32 %13, 1
  %15 = select i1 %14, i32 4, i32 1
  store i32 %15, ptr %3, align 4, !tbaa !62
  br label %16

16:                                               ; preds = %12, %1
  %17 = load i32, ptr %3, align 4, !tbaa !62
  %18 = icmp eq i32 %17, 4
  br i1 %18, label %19, label %23

19:                                               ; preds = %16
  %20 = call i32 @dt_view_get_current()
  %21 = icmp eq i32 %20, 2
  br i1 %21, label %22, label %23

22:                                               ; preds = %19
  store i32 1, ptr %3, align 4, !tbaa !62
  br label %23

23:                                               ; preds = %22, %19, %16
  %24 = load i32, ptr %3, align 4, !tbaa !62
  call void @llvm.lifetime.end.p0(i64 4, ptr %3) #12
  ret i32 %24
}