; Function Attrs: nounwind uwtable
define i32 @dt_lib_get_container(ptr noundef %0) local_unnamed_addr #0 {
  %2 = getelementptr inbounds nuw i8, ptr %0, i64 72
  %3 = load ptr, ptr %2, align 8, !tbaa !77
  %4 = tail call i32 %3(ptr noundef %0) #19
  %5 = getelementptr inbounds nuw i8, ptr %0, i64 208
  %6 = load ptr, ptr %5, align 8, !tbaa !76
  %.not.i = icmp eq ptr %6, null
  br i1 %.not.i, label %10, label %7

7:                                                ; preds = %1
  %8 = tail call i32 %6(ptr noundef nonnull %0) #19
  %9 = add nsw i32 %8, 1
  br label %10

10:                                               ; preds = %7, %1
  %11 = phi i32 [ %9, %7 ], [ 0, %1 ]
  %12 = tail call fastcc ptr @_get_lib_view_path(ptr noundef nonnull %0, ptr noundef null, ptr noundef nonnull @.str.49)
  %.not10.i = icmp eq ptr %12, null
  br i1 %.not10.i, label %_lib_position.exit, label %13

13:                                               ; preds = %10
  %14 = tail call i32 @dt_conf_key_exists(ptr noundef nonnull %12) #19
  %.not11.i = icmp eq i32 %14, 0
  br i1 %.not11.i, label %_lib_position.exit, label %15

15:                                               ; preds = %13
  %16 = tail call i32 @dt_conf_get_int(ptr noundef nonnull %12) #19
  br label %_lib_position.exit

_lib_position.exit:                               ; preds = %10, %13, %15
  %.0.i = phi i32 [ %16, %15 ], [ %11, %13 ], [ %11, %10 ]
  tail call void @g_free(ptr noundef %12) #19
  %17 = icmp slt i32 %.0.i, 0
  %18 = icmp eq i32 %4, 1
  %19 = select i1 %18, i32 4, i32 1
  %.0 = select i1 %17, i32 %19, i32 %4
  %20 = icmp eq i32 %.0, 4
  br i1 %20, label %21, label %24

21:                                               ; preds = %_lib_position.exit
  %22 = tail call i32 @dt_view_get_current() #19
  %23 = icmp eq i32 %22, 2
  %spec.select = select i1 %23, i32 1, i32 4
  br label %24

24:                                               ; preds = %21, %_lib_position.exit
  %.1 = phi i32 [ %.0, %_lib_position.exit ], [ %spec.select, %21 ]
  ret i32 %.1
}